target datalayout = "e-m:e-p270:32:32-p271:32:32-p272:64:64-i64:64-i128:128-f80:128-n8:16:32:64-S128"
target triple = "x86_64-pc-linux-gnu"

%struct.evp_test_st = type { %struct.stanza_st, ptr, i32, ptr, ptr, ptr, ptr, ptr, ptr, i32 }
%struct.stanza_st = type { ptr, ptr, i32, i32, i32, i32, i32, i32, [150 x %struct.pair_st], ptr, [32768 x i8] }
%struct.pair_st = type { ptr, ptr }
%struct.keygen_test_data_st = type { ptr, ptr, ptr, ptr, ptr, ptr, i64, ptr, i64, ptr, i64 }

@.str.29 = private unnamed_addr constant [27 x i8] c"../openssl/test/evp_test.c\00", align 1
@.str.326 = private unnamed_addr constant [37 x i8] c"data = OPENSSL_zalloc(sizeof(*data))\00", align 1

; Function Attrs: nounwind uwtable
define internal i32 @is_pkey_disabled(ptr noundef %0) #0 {
  %2 = alloca ptr, align 8
  store ptr %0, ptr %2, align 8, !tbaa !4
  ret i32 0
}

; Function Attrs: nounwind uwtable
define internal i32 @keygen_test_init(ptr noundef %0, ptr noundef %1) #0 {
  %3 = alloca i32, align 4
  %4 = alloca ptr, align 8
  %5 = alloca ptr, align 8
  %6 = alloca ptr, align 8
  %7 = alloca i32, align 4
  store ptr %0, ptr %4, align 8, !tbaa !15
  store ptr %1, ptr %5, align 8, !tbaa !4
  call void @llvm.lifetime.start.p0(i64 8, ptr %6) #10
  %8 = load ptr, ptr %5, align 8, !tbaa !4
  %9 = call i32 @is_pkey_disabled(ptr noundef %8)
  %10 = icmp ne i32 %9, 0
  br i1 %10, label %11, label %14

11:                                               ; preds = %2
  %12 = load ptr, ptr %4, align 8, !tbaa !15
  %13 = getelementptr inbounds nuw %struct.evp_test_st, ptr %12, i32 0, i32 2
  store i32 1, ptr %13, align 8, !tbaa !24
  store i32 1, ptr %3, align 4
  store i32 1, ptr %7, align 4
  br label %39

14:                                               ; preds = %2
  %15 = call noalias ptr @CRYPTO_zalloc(i64 noundef 88, ptr noundef @.str.29, i32 noundef 4192)
  store ptr %15, ptr %6, align 8, !tbaa !267
  %16 = call i32 @test_ptr(ptr noundef @.str.29, i32 noundef 4192, ptr noundef @.str.326, ptr noundef %15)
  %17 = icmp ne i32 %16, 0
  br i1 %17, label %19, label %18

18:                                               ; preds = %14
  store i32 0, ptr %3, align 4
  store i32 1, ptr %7, align 4
  br label %39

19:                                               ; preds = %14
  %20 = load ptr, ptr %6, align 8, !tbaa !267
  %21 = getelementptr inbounds nuw %struct.keygen_test_data_st, ptr %20, i32 0, i32 0
  store ptr null, ptr %21, align 8, !tbaa !269
  %22 = load ptr, ptr %6, align 8, !tbaa !267
  %23 = getelementptr inbounds nuw %struct.keygen_test_data_st, ptr %22, i32 0, i32 1
  store ptr null, ptr %23, align 8, !tbaa !271
  %24 = call ptr @OPENSSL_sk_new_null()
  %25 = load ptr, ptr %6, align 8, !tbaa !267
  %26 = getelementptr inbounds nuw %struct.keygen_test_data_st, ptr %25, i32 0, i32 3
  store ptr %24, ptr %26, align 8, !tbaa !272
  %27 = call ptr @OPENSSL_sk_new_null()
  %28 = load ptr, ptr %6, align 8, !tbaa !267
  %29 = getelementptr inbounds nuw %struct.keygen_test_data_st, ptr %28, i32 0, i32 4
  store ptr %27, ptr %29, align 8, !tbaa !273
  %30 = load ptr, ptr %5, align 8, !tbaa !4
  %31 = call noalias ptr @CRYPTO_strdup(ptr noundef %30, ptr noundef @.str.29, i32 noundef 4198)
  %32 = load ptr, ptr %6, align 8, !tbaa !267
  %33 = getelementptr inbounds nuw %struct.keygen_test_data_st, ptr %32, i32 0, i32 2
  store ptr %31, ptr %33, align 8, !tbaa !274
  %34 = load ptr, ptr %6, align 8, !tbaa !267
  %35 = load ptr, ptr %4, align 8, !tbaa !15
  %36 = getelementptr inbounds nuw %struct.evp_test_st, ptr %35, i32 0, i32 8
  store ptr %34, ptr %36, align 8, !tbaa !66
  %37 = load ptr, ptr %4, align 8, !tbaa !15
  %38 = getelementptr inbounds nuw %struct.evp_test_st, ptr %37, i32 0, i32 4
  store ptr null, ptr %38, align 8, !tbaa !63
  store i32 1, ptr %3, align 4
  store i32 1, ptr %7, align 4
  br label %39

39:                                               ; preds = %19, %18, %11
  call void @llvm.lifetime.end.p0(i64 8, ptr %6) #10
  %40 = load i32, ptr %3, align 4
  ret i32 %40
}