; Function Attrs: nounwind uwtable
define internal range(i32 0, 2) i32 @keygen_test_init(ptr noundef writeonly captures(none) %0, ptr noundef %1) #1 {
  %3 = tail call noalias ptr @CRYPTO_zalloc(i64 noundef 88, ptr noundef nonnull @.str.29, i32 noundef 4192) #10
  %4 = tail call i32 @test_ptr(ptr noundef nonnull @.str.29, i32 noundef 4192, ptr noundef nonnull @.str.326, ptr noundef %3) #10
  %.not = icmp eq i32 %4, 0
  br i1 %.not, label %14, label %5

5:                                                ; preds = %2
  tail call void @llvm.memset.p0.i64(ptr noundef nonnull align 8 dereferenceable(16) %3, i8 0, i64 16, i1 false)
  %6 = tail call ptr @OPENSSL_sk_new_null() #10
  %7 = getelementptr inbounds nuw i8, ptr %3, i64 24
  store ptr %6, ptr %7, align 8, !tbaa !214
  %8 = tail call ptr @OPENSSL_sk_new_null() #10
  %9 = getelementptr inbounds nuw i8, ptr %3, i64 32
  store ptr %8, ptr %9, align 8, !tbaa !216
  %10 = tail call noalias ptr @CRYPTO_strdup(ptr noundef %1, ptr noundef nonnull @.str.29, i32 noundef 4198) #10
  %11 = getelementptr inbounds nuw i8, ptr %3, i64 16
  store ptr %10, ptr %11, align 8, !tbaa !217
  %12 = getelementptr inbounds nuw i8, ptr %0, i64 35272
  store ptr %3, ptr %12, align 8, !tbaa !20
  %13 = getelementptr inbounds nuw i8, ptr %0, i64 35240
  store ptr null, ptr %13, align 8, !tbaa !64
  br label %14

14:                                               ; preds = %2, %5
  %.0 = phi i32 [ 1, %5 ], [ 0, %2 ]
  ret i32 %.0
}